                                      1 ;--------------------------------------------------------
                                      2 ; File Created by SDCC : free open source ISO C Compiler 
                                      3 ; Version 4.2.10 #13778 (MINGW64)
                                      4 ;--------------------------------------------------------
                                      5 	.module stm8s_mib_beep
                                      6 	.optsdcc -mstm8
                                      7 	
                                      8 ;--------------------------------------------------------
                                      9 ; Public variables in this module
                                     10 ;--------------------------------------------------------
                                     11 	.globl _mib_printf
                                     12 	.globl _FLASH_ProgramOptionByte
                                     13 	.globl _FLASH_ReadByte
                                     14 	.globl _FLASH_Unlock
                                     15 	.globl _fnBeepStart
                                     16 	.globl _calConfigBEEP
                                     17 ;--------------------------------------------------------
                                     18 ; ram data
                                     19 ;--------------------------------------------------------
                                     20 	.area DATA
                                     21 ;--------------------------------------------------------
                                     22 ; ram data
                                     23 ;--------------------------------------------------------
                                     24 	.area INITIALIZED
                                     25 ;--------------------------------------------------------
                                     26 ; absolute external ram data
                                     27 ;--------------------------------------------------------
                                     28 	.area DABS (ABS)
                                     29 
                                     30 ; default segment ordering for linker
                                     31 	.area HOME
                                     32 	.area GSINIT
                                     33 	.area GSFINAL
                                     34 	.area CONST
                                     35 	.area INITIALIZER
                                     36 	.area CODE
                                     37 
                                     38 ;--------------------------------------------------------
                                     39 ; global & static initialisations
                                     40 ;--------------------------------------------------------
                                     41 	.area HOME
                                     42 	.area GSINIT
                                     43 	.area GSFINAL
                                     44 	.area GSINIT
                                     45 ;--------------------------------------------------------
                                     46 ; Home
                                     47 ;--------------------------------------------------------
                                     48 	.area HOME
                                     49 	.area HOME
                                     50 ;--------------------------------------------------------
                                     51 ; code
                                     52 ;--------------------------------------------------------
                                     53 	.area CODE
                                     54 ;	./../../mib/stm8s_mib_beep.c: 45: void fnBeepStart(uint16_t vwFreq,uint16_t vwDelay) // msec... 
                                     55 ;	-----------------------------------------
                                     56 ;	 function fnBeepStart
                                     57 ;	-----------------------------------------
      000000                         58 _fnBeepStart:
      000000 52 02            [ 2]   59 	sub	sp, #2
      000002 1F 01            [ 2]   60 	ldw	(0x01, sp), x
                                     61 ;	./../../mib/stm8s_mib_beep.c: 58: UCOM_BEEP_GPIO->DDR |= (UCOM_BEEP_PIN); /* Set Output mode */
      000004 72 18 50 11      [ 1]   62 	bset	0x5011, #4
                                     63 ;	./../../mib/stm8s_mib_beep.c: 59: UCOM_BEEP_GPIO->CR1 |= (UCOM_BEEP_PIN);	/* Pull-Up or Push-Pull */
      000008 72 18 50 12      [ 1]   64 	bset	0x5012, #4
                                     65 ;	./../../mib/stm8s_mib_beep.c: 60: UCOM_BEEP_GPIO->CR2 |= (UCOM_BEEP_PIN);	/* Output speed up to 10 MHz */
      00000C 72 18 50 13      [ 1]   66 	bset	0x5013, #4
                                     67 ;	./../../mib/stm8s_mib_beep.c: 61: UCOM_BEEP_GPIO->ODR &= ~(UCOM_BEEP_PIN); // low... 
      000010 C6 50 0F         [ 1]   68 	ld	a, 0x500f
      000013 A4 EF            [ 1]   69 	and	a, #0xef
      000015 C7 50 0F         [ 1]   70 	ld	0x500f, a
                                     71 ;	./../../mib/stm8s_mib_beep.c: 66: if(FLASH_ReadByte(OPT2_REG)!=AFR7_BIT) 
      000018 4B 03            [ 1]   72 	push	#0x03
      00001A 4B 48            [ 1]   73 	push	#0x48
      00001C 5F               [ 1]   74 	clrw	x
      00001D 89               [ 2]   75 	pushw	x
      00001E CDr00r00         [ 4]   76 	call	_FLASH_ReadByte
      000021 A1 80            [ 1]   77 	cp	a, #0x80
      000023 27 0D            [ 1]   78 	jreq	00102$
                                     79 ;	./../../mib/stm8s_mib_beep.c: 68: FLASH_Unlock(FLASH_MEMTYPE_DATA); 
      000025 A6 F7            [ 1]   80 	ld	a, #0xf7
      000027 CDr00r00         [ 4]   81 	call	_FLASH_Unlock
                                     82 ;	./../../mib/stm8s_mib_beep.c: 70: FLASH_ProgramOptionByte(OPT2_REG,AFR7_BIT); 
      00002A A6 80            [ 1]   83 	ld	a, #0x80
      00002C AE 48 03         [ 2]   84 	ldw	x, #0x4803
      00002F CDr00r00         [ 4]   85 	call	_FLASH_ProgramOptionByte
      000032                         86 00102$:
                                     87 ;	./../../mib/stm8s_mib_beep.c: 78: calConfigBEEP(vwFreq);
      000032 1E 01            [ 2]   88 	ldw	x, (0x01, sp)
      000034 CDr00r5A         [ 4]   89 	call	_calConfigBEEP
                                     90 ;	./../../mib/stm8s_mib_beep.c: 83: BEEP->CSR |= BEEP_CSR_BEEPEN;
      000037 C6 50 F3         [ 1]   91 	ld	a, 0x50f3
      00003A AA 20            [ 1]   92 	or	a, #0x20
      00003C C7 50 F3         [ 1]   93 	ld	0x50f3, a
                                     94 ;	./../../mib/stm8s_mib_beep.c: 87: if(vwDelay!=0)
      00003F 1E 05            [ 2]   95 	ldw	x, (0x05, sp)
      000041 27 12            [ 1]   96 	jreq	00110$
                                     97 ;	./../../mib/stm8s_mib_beep.c: 90: gwMibMiliSec = vwDelay;
      000043 1E 05            [ 2]   98 	ldw	x, (0x05, sp)
      000045 CFu00u00         [ 2]   99 	ldw	_gwMibMiliSec+0, x
                                    100 ;	./../../mib/stm8s_mib_beep.c: 91: do {
      000048                        101 00105$:
                                    102 ;	./../../mib/stm8s_mib_beep.c: 92: if(gwMibMiliSec==0)
      000048 CEu00u00         [ 2]  103 	ldw	x, _gwMibMiliSec+0
      00004B 26 FB            [ 1]  104 	jrne	00105$
                                    105 ;	./../../mib/stm8s_mib_beep.c: 95: BEEP->CSR &= (uint8_t)(~BEEP_CSR_BEEPEN);
      00004D C6 50 F3         [ 1]  106 	ld	a, 0x50f3
      000050 A4 DF            [ 1]  107 	and	a, #0xdf
      000052 C7 50 F3         [ 1]  108 	ld	0x50f3, a
                                    109 ;	./../../mib/stm8s_mib_beep.c: 98: } while(1);
      000055                        110 00110$:
                                    111 ;	./../../mib/stm8s_mib_beep.c: 100: }
      000055 1E 03            [ 2]  112 	ldw	x, (3, sp)
      000057 5B 06            [ 2]  113 	addw	sp, #6
      000059 FC               [ 2]  114 	jp	(x)
                                    115 ;	./../../mib/stm8s_mib_beep.c: 114: void calConfigBEEP(uint16_t vwFreq) // msec... 
                                    116 ;	-----------------------------------------
                                    117 ;	 function calConfigBEEP
                                    118 ;	-----------------------------------------
      00005A                        119 _calConfigBEEP:
      00005A 52 07            [ 2]  120 	sub	sp, #7
      00005C 51               [ 1]  121 	exgw	x, y
                                    122 ;	./../../mib/stm8s_mib_beep.c: 117: uint8_t vbBEEPDIV = 0;
      00005D 0F 05            [ 1]  123 	clr	(0x05, sp)
                                    124 ;	./../../mib/stm8s_mib_beep.c: 118: uint32_t vdwData = vwFreq;
      00005F 17 03            [ 2]  125 	ldw	(0x03, sp), y
      000061 5F               [ 1]  126 	clrw	x
      000062 1F 01            [ 2]  127 	ldw	(0x01, sp), x
                                    128 ;	./../../mib/stm8s_mib_beep.c: 121: if(vwFreq<500)
      000064 17 06            [ 2]  129 	ldw	(0x06, sp), y
      000066 93               [ 1]  130 	ldw	x, y
      000067 A3 01 F4         [ 2]  131 	cpw	x, #0x01f4
      00006A 24 07            [ 1]  132 	jrnc	00111$
                                    133 ;	./../../mib/stm8s_mib_beep.c: 124: vbBEEPSEL = 0xFF;
      00006C A6 FF            [ 1]  134 	ld	a, #0xff
      00006E 6B 06            [ 1]  135 	ld	(0x06, sp), a
      000070 CCr00rF4         [ 2]  136 	jp	00112$
      000073                        137 00111$:
                                    138 ;	./../../mib/stm8s_mib_beep.c: 126: else if(vwFreq<1000)
      000073 1E 06            [ 2]  139 	ldw	x, (0x06, sp)
      000075 A3 03 E8         [ 2]  140 	cpw	x, #0x03e8
      000078 24 20            [ 1]  141 	jrnc	00108$
                                    142 ;	./../../mib/stm8s_mib_beep.c: 128: vbBEEPSEL = 0x00; // f / (8 * div) khz
      00007A 0F 06            [ 1]  143 	clr	(0x06, sp)
                                    144 ;	./../../mib/stm8s_mib_beep.c: 129: vdwDiv = (128000 / 8) / vdwData;
      00007C 90 89            [ 2]  145 	pushw	y
      00007E 1E 05            [ 2]  146 	ldw	x, (0x05, sp)
      000080 89               [ 2]  147 	pushw	x
      000081 1E 05            [ 2]  148 	ldw	x, (0x05, sp)
      000083 89               [ 2]  149 	pushw	x
      000084 4B 80            [ 1]  150 	push	#0x80
      000086 4B 3E            [ 1]  151 	push	#0x3e
      000088 5F               [ 1]  152 	clrw	x
      000089 89               [ 2]  153 	pushw	x
      00008A CDr00r00         [ 4]  154 	call	__divulong
      00008D 5B 08            [ 2]  155 	addw	sp, #8
      00008F 17 04            [ 2]  156 	ldw	(0x04, sp), y
      000091 9F               [ 1]  157 	ld	a, xl
      000092 90 85            [ 2]  158 	popw	y
                                    159 ;	./../../mib/stm8s_mib_beep.c: 130: vbBEEPDIV =  vdwDiv - 2;
      000094 A0 02            [ 1]  160 	sub	a, #0x02
      000096 6B 05            [ 1]  161 	ld	(0x05, sp), a
                                    162 ;	./../../mib/stm8s_mib_beep.c: 131: vdwDataLast = (128000 / 8) / vdwDiv;
      000098 20 5A            [ 2]  163 	jra	00112$
      00009A                        164 00108$:
                                    165 ;	./../../mib/stm8s_mib_beep.c: 133: else if(vwFreq<2000)
      00009A 1E 06            [ 2]  166 	ldw	x, (0x06, sp)
      00009C A3 07 D0         [ 2]  167 	cpw	x, #0x07d0
      00009F 24 22            [ 1]  168 	jrnc	00105$
                                    169 ;	./../../mib/stm8s_mib_beep.c: 135: vbBEEPSEL = 0x01; // f / (4 * div) khz
      0000A1 A6 01            [ 1]  170 	ld	a, #0x01
      0000A3 6B 06            [ 1]  171 	ld	(0x06, sp), a
                                    172 ;	./../../mib/stm8s_mib_beep.c: 136: vdwDiv = (128000 / 4) / vdwData;
      0000A5 90 89            [ 2]  173 	pushw	y
      0000A7 1E 05            [ 2]  174 	ldw	x, (0x05, sp)
      0000A9 89               [ 2]  175 	pushw	x
      0000AA 1E 05            [ 2]  176 	ldw	x, (0x05, sp)
      0000AC 89               [ 2]  177 	pushw	x
      0000AD 4B 00            [ 1]  178 	push	#0x00
      0000AF 4B 7D            [ 1]  179 	push	#0x7d
      0000B1 5F               [ 1]  180 	clrw	x
      0000B2 89               [ 2]  181 	pushw	x
      0000B3 CDr00r00         [ 4]  182 	call	__divulong
      0000B6 5B 08            [ 2]  183 	addw	sp, #8
      0000B8 17 04            [ 2]  184 	ldw	(0x04, sp), y
      0000BA 9F               [ 1]  185 	ld	a, xl
      0000BB 90 85            [ 2]  186 	popw	y
                                    187 ;	./../../mib/stm8s_mib_beep.c: 137: vbBEEPDIV =  vdwDiv - 2;
      0000BD A0 02            [ 1]  188 	sub	a, #0x02
      0000BF 6B 05            [ 1]  189 	ld	(0x05, sp), a
                                    190 ;	./../../mib/stm8s_mib_beep.c: 138: vdwDataLast = (128000 / 8) / vdwDiv;
      0000C1 20 31            [ 2]  191 	jra	00112$
      0000C3                        192 00105$:
                                    193 ;	./../../mib/stm8s_mib_beep.c: 140: else if(vwFreq<32000)
      0000C3 1E 06            [ 2]  194 	ldw	x, (0x06, sp)
      0000C5 A3 7D 00         [ 2]  195 	cpw	x, #0x7d00
      0000C8 24 26            [ 1]  196 	jrnc	00102$
                                    197 ;	./../../mib/stm8s_mib_beep.c: 142: vbBEEPSEL = 0x02; // f / (2 * div) khz
      0000CA A6 02            [ 1]  198 	ld	a, #0x02
      0000CC 6B 06            [ 1]  199 	ld	(0x06, sp), a
                                    200 ;	./../../mib/stm8s_mib_beep.c: 143: vdwDiv = (128000 / 2) / vdwData;
      0000CE 90 89            [ 2]  201 	pushw	y
      0000D0 1E 05            [ 2]  202 	ldw	x, (0x05, sp)
      0000D2 89               [ 2]  203 	pushw	x
      0000D3 1E 05            [ 2]  204 	ldw	x, (0x05, sp)
      0000D5 89               [ 2]  205 	pushw	x
      0000D6 4B 00            [ 1]  206 	push	#0x00
      0000D8 4B FA            [ 1]  207 	push	#0xfa
      0000DA 5F               [ 1]  208 	clrw	x
      0000DB 89               [ 2]  209 	pushw	x
      0000DC CDr00r00         [ 4]  210 	call	__divulong
      0000DF 5B 08            [ 2]  211 	addw	sp, #8
      0000E1 02               [ 1]  212 	rlwa	x
      0000E2 6B 06            [ 1]  213 	ld	(0x06, sp), a
      0000E4 01               [ 1]  214 	rrwa	x
      0000E5 17 04            [ 2]  215 	ldw	(0x04, sp), y
      0000E7 9F               [ 1]  216 	ld	a, xl
      0000E8 90 85            [ 2]  217 	popw	y
                                    218 ;	./../../mib/stm8s_mib_beep.c: 144: vbBEEPDIV =  vdwDiv - 2;
      0000EA A0 02            [ 1]  219 	sub	a, #0x02
      0000EC 6B 05            [ 1]  220 	ld	(0x05, sp), a
                                    221 ;	./../../mib/stm8s_mib_beep.c: 145: vdwDataLast = (128000 / 8) / vdwDiv;
      0000EE 20 04            [ 2]  222 	jra	00112$
      0000F0                        223 00102$:
                                    224 ;	./../../mib/stm8s_mib_beep.c: 150: vbBEEPSEL = 0xFF;
      0000F0 A6 FF            [ 1]  225 	ld	a, #0xff
      0000F2 6B 06            [ 1]  226 	ld	(0x06, sp), a
      0000F4                        227 00112$:
                                    228 ;	./../../mib/stm8s_mib_beep.c: 152: if(vbBEEPSEL!=0xFF)
      0000F4 7B 06            [ 1]  229 	ld	a, (0x06, sp)
      0000F6 4C               [ 1]  230 	inc	a
      0000F7 27 50            [ 1]  231 	jreq	00114$
                                    232 ;	./../../mib/stm8s_mib_beep.c: 154: ccprintf(_DEBUG_BEEP_A_, ("beep init [%d : SEL(%d) : DIV(%d)] Hz\r\n",vwFreq,vbBEEPSEL,vbBEEPDIV));		
      0000F9 5F               [ 1]  233 	clrw	x
      0000FA 7B 05            [ 1]  234 	ld	a, (0x05, sp)
      0000FC 97               [ 1]  235 	ld	xl, a
      0000FD 7B 06            [ 1]  236 	ld	a, (0x06, sp)
      0000FF 6B 04            [ 1]  237 	ld	(0x04, sp), a
      000101 0F 03            [ 1]  238 	clr	(0x03, sp)
      000103 89               [ 2]  239 	pushw	x
      000104 1E 05            [ 2]  240 	ldw	x, (0x05, sp)
      000106 89               [ 2]  241 	pushw	x
      000107 90 89            [ 2]  242 	pushw	y
      000109 4Br00            [ 1]  243 	push	#<(__str_0+0)
      00010B 4Bs00            [ 1]  244 	push	#((__str_0+0) >> 8)
      00010D CDr00r00         [ 4]  245 	call	_mib_printf
      000110 5B 08            [ 2]  246 	addw	sp, #8
                                    247 ;	./../../mib/stm8s_mib_beep.c: 157: BEEP->CSR  = BEEP_CSR_BEEPDIV;
      000112 35 1F 50 F3      [ 1]  248 	mov	0x50f3+0, #0x1f
                                    249 ;	./../../mib/stm8s_mib_beep.c: 159: BEEP->CSR &= (uint8_t)(~BEEP_CSR_BEEPDIV); /* Clear bits */
      000116 C6 50 F3         [ 1]  250 	ld	a, 0x50f3
      000119 A4 E0            [ 1]  251 	and	a, #0xe0
      00011B C7 50 F3         [ 1]  252 	ld	0x50f3, a
                                    253 ;	./../../mib/stm8s_mib_beep.c: 160: BEEP->CSR |= (vbBEEPDIV & BEEP_CSR_BEEPDIV);
      00011E C6 50 F3         [ 1]  254 	ld	a, 0x50f3
      000121 6B 07            [ 1]  255 	ld	(0x07, sp), a
      000123 7B 05            [ 1]  256 	ld	a, (0x05, sp)
      000125 A4 1F            [ 1]  257 	and	a, #0x1f
      000127 1A 07            [ 1]  258 	or	a, (0x07, sp)
      000129 C7 50 F3         [ 1]  259 	ld	0x50f3, a
                                    260 ;	./../../mib/stm8s_mib_beep.c: 164: BEEP->CSR &= (uint8_t)(~BEEP_CSR_BEEPSEL);
      00012C C6 50 F3         [ 1]  261 	ld	a, 0x50f3
      00012F A4 3F            [ 1]  262 	and	a, #0x3f
      000131 C7 50 F3         [ 1]  263 	ld	0x50f3, a
                                    264 ;	./../../mib/stm8s_mib_beep.c: 165: BEEP->CSR |= (uint8_t)((vbBEEPSEL&0x03)<<6);
      000134 C6 50 F3         [ 1]  265 	ld	a, 0x50f3
      000137 6B 07            [ 1]  266 	ld	(0x07, sp), a
      000139 7B 06            [ 1]  267 	ld	a, (0x06, sp)
      00013B A4 03            [ 1]  268 	and	a, #0x03
      00013D 4E               [ 1]  269 	swap	a
      00013E A4 F0            [ 1]  270 	and	a, #0xf0
      000140 48               [ 1]  271 	sll	a
      000141 48               [ 1]  272 	sll	a
      000142 1A 07            [ 1]  273 	or	a, (0x07, sp)
      000144 C7 50 F3         [ 1]  274 	ld	0x50f3, a
      000147 20 0F            [ 2]  275 	jra	00116$
      000149                        276 00114$:
                                    277 ;	./../../mib/stm8s_mib_beep.c: 170: BEEP->CSR  = BEEP_CSR_BEEPDIV;
      000149 35 1F 50 F3      [ 1]  278 	mov	0x50f3+0, #0x1f
                                    279 ;	./../../mib/stm8s_mib_beep.c: 171: ccprintf(_DEBUG_BEEP_A_, ("beep init error... [%d] Hz\r\n",vwFreq));		
      00014D 90 89            [ 2]  280 	pushw	y
      00014F 4Br28            [ 1]  281 	push	#<(__str_1+0)
      000151 4Bs00            [ 1]  282 	push	#((__str_1+0) >> 8)
      000153 CDr00r00         [ 4]  283 	call	_mib_printf
      000156 5B 04            [ 2]  284 	addw	sp, #4
      000158                        285 00116$:
                                    286 ;	./../../mib/stm8s_mib_beep.c: 173: }
      000158 5B 07            [ 2]  287 	addw	sp, #7
      00015A 81               [ 4]  288 	ret
                                    289 	.area CODE
                                    290 	.area CONST
                                    291 	.area CONST
      000000                        292 __str_0:
      000000 62 65 65 70 20 69 6E   293 	.ascii "beep init [%d : SEL(%d) : DIV(%d)] Hz"
             69 74 20 5B 25 64 20
             3A 20 53 45 4C 28 25
             64 29 20 3A 20 44 49
             56 28 25 64 29 5D 20
             48 7A
      000025 0D                     294 	.db 0x0d
      000026 0A                     295 	.db 0x0a
      000027 00                     296 	.db 0x00
                                    297 	.area CODE
                                    298 	.area CONST
      000028                        299 __str_1:
      000028 62 65 65 70 20 69 6E   300 	.ascii "beep init error... [%d] Hz"
             69 74 20 65 72 72 6F
             72 2E 2E 2E 20 5B 25
             64 5D 20 48 7A
      000042 0D                     301 	.db 0x0d
      000043 0A                     302 	.db 0x0a
      000044 00                     303 	.db 0x00
                                    304 	.area CODE
                                    305 	.area INITIALIZER
                                    306 	.area CABS (ABS)
